; Function Attrs: mustprogress nounwind uwtable
define hidden void @_ZN20RangeCheckEliminator12update_boundER13GrowableArrayIiEP11InstructionPNS_5BoundE(ptr noundef nonnull align 8 dereferenceable(88) %0, ptr noundef nonnull align 8 dereferenceable(24) %1, ptr noundef %2, ptr noundef %3) local_unnamed_addr #0 align 2 {
  %5 = load ptr, ptr %2, align 8
  %6 = getelementptr inbounds i8, ptr %5, i64 32
  %7 = load ptr, ptr %6, align 8
  %8 = tail call noundef ptr %7(ptr noundef nonnull align 8 dereferenceable(96) %2) #13
  %.not = icmp eq ptr %8, null
  br i1 %.not, label %9, label %73

9:                                                ; preds = %4
  %10 = getelementptr inbounds i8, ptr %2, i64 8
  %11 = load i32, ptr %10, align 8
  %12 = getelementptr inbounds i8, ptr %0, i64 24
  %13 = load ptr, ptr %12, align 8
  %14 = sext i32 %11 to i64
  %15 = getelementptr inbounds ptr, ptr %13, i64 %14
  %16 = load ptr, ptr %15, align 8
  %.not11 = icmp eq ptr %16, null
  br i1 %.not11, label %17, label %19

17:                                               ; preds = %9
  %18 = tail call noundef ptr @_ZN20RangeCheckEliminator9get_boundEP11Instruction(ptr noundef nonnull align 8 dereferenceable(88) %0, ptr noundef nonnull %2)
  %.pre = load i32, ptr %10, align 8
  %.pre16 = load ptr, ptr %12, align 8
  %.phi.trans.insert = sext i32 %.pre to i64
  %.phi.trans.insert17 = getelementptr inbounds ptr, ptr %.pre16, i64 %.phi.trans.insert
  %.pre18 = load ptr, ptr %.phi.trans.insert17, align 8
  br label %19

19:                                               ; preds = %17, %9
  %20 = phi ptr [ %.pre18, %17 ], [ %16, %9 ]
  %21 = load i32, ptr %20, align 4
  %22 = icmp sgt i32 %21, 0
  br i1 %22, label %23, label %.thread

23:                                               ; preds = %19
  %24 = getelementptr inbounds i8, ptr %20, i64 8
  %25 = load ptr, ptr %24, align 8
  %26 = zext nneg i32 %21 to i64
  %27 = getelementptr ptr, ptr %25, i64 %26
  %28 = getelementptr i8, ptr %27, i64 -8
  %29 = load ptr, ptr %28, align 8
  %.not12 = icmp eq ptr %29, null
  br i1 %.not12, label %.thread, label %30

30:                                               ; preds = %23
  tail call void @_ZN20RangeCheckEliminator5Bound6and_opEPS0_(ptr noundef nonnull align 8 dereferenceable(32) %3, ptr noundef nonnull %29)
  %.pre19 = load i32, ptr %10, align 8
  %.pre20 = load ptr, ptr %12, align 8
  %.phi.trans.insert21 = sext i32 %.pre19 to i64
  %.phi.trans.insert22 = getelementptr inbounds ptr, ptr %.pre20, i64 %.phi.trans.insert21
  %.pre23 = load ptr, ptr %.phi.trans.insert22, align 8
  %.pre24 = load i32, ptr %.pre23, align 8
  br label %.thread

.thread:                                          ; preds = %19, %30, %23
  %31 = phi i32 [ %21, %19 ], [ %.pre24, %30 ], [ %21, %23 ]
  %32 = phi ptr [ %20, %19 ], [ %.pre23, %30 ], [ %20, %23 ]
  %33 = getelementptr inbounds i8, ptr %32, i64 4
  %34 = load i32, ptr %33, align 4
  %35 = icmp eq i32 %31, %34
  br i1 %35, label %36, label %_ZN26GrowableArrayWithAllocatorIPN20RangeCheckEliminator5BoundE13GrowableArrayIS2_EE4pushERKS2_.exit

36:                                               ; preds = %.thread
  %37 = add nsw i32 %31, 1
  %38 = icmp sgt i32 %31, -1
  %39 = xor i32 %31, -2147483648
  %40 = and i32 %39, %37
  %41 = icmp eq i32 %40, 0
  %42 = and i1 %38, %41
  %43 = tail call range(i32 0, 33) i32 @llvm.ctlz.i32(i32 %37, i1 true)
  %44 = sub nuw nsw i32 32, %43
  %45 = shl nuw i32 1, %44
  %.0.i.i.i.i.i = select i1 %42, i32 %37, i32 %45
  tail call void @_ZN26GrowableArrayWithAllocatorIPN20RangeCheckEliminator5BoundE13GrowableArrayIS2_EE9expand_toEi(ptr noundef nonnull align 8 dereferenceable(16) %32, i32 noundef %.0.i.i.i.i.i)
  %.pre.i.i = load i32, ptr %32, align 8
  br label %_ZN26GrowableArrayWithAllocatorIPN20RangeCheckEliminator5BoundE13GrowableArrayIS2_EE4pushERKS2_.exit

_ZN26GrowableArrayWithAllocatorIPN20RangeCheckEliminator5BoundE13GrowableArrayIS2_EE4pushERKS2_.exit: ; preds = %.thread, %36
  %46 = phi i32 [ %.pre.i.i, %36 ], [ %31, %.thread ]
  %47 = add nsw i32 %46, 1
  store i32 %47, ptr %32, align 8
  %48 = getelementptr inbounds i8, ptr %32, i64 8
  %49 = load ptr, ptr %48, align 8
  %50 = sext i32 %46 to i64
  %51 = getelementptr inbounds ptr, ptr %49, i64 %50
  store ptr %3, ptr %51, align 8
  %52 = load i32, ptr %10, align 8
  %53 = load i32, ptr %1, align 8
  %54 = getelementptr inbounds i8, ptr %1, i64 4
  %55 = load i32, ptr %54, align 4
  %56 = icmp eq i32 %53, %55
  br i1 %56, label %57, label %_ZN26GrowableArrayWithAllocatorIi13GrowableArrayIiEE6appendERKi.exit

57:                                               ; preds = %_ZN26GrowableArrayWithAllocatorIPN20RangeCheckEliminator5BoundE13GrowableArrayIS2_EE4pushERKS2_.exit
  %58 = add nsw i32 %53, 1
  %59 = icmp sgt i32 %53, -1
  %60 = xor i32 %53, -2147483648
  %61 = and i32 %60, %58
  %62 = icmp eq i32 %61, 0
  %63 = and i1 %59, %62
  %64 = tail call range(i32 0, 33) i32 @llvm.ctlz.i32(i32 %58, i1 true)
  %65 = sub nuw nsw i32 32, %64
  %66 = shl nuw i32 1, %65
  %.0.i.i.i.i = select i1 %63, i32 %58, i32 %66
  tail call void @_ZN26GrowableArrayWithAllocatorIi13GrowableArrayIiEE9expand_toEi(ptr noundef nonnull align 8 dereferenceable(16) %1, i32 noundef %.0.i.i.i.i)
  %.pre.i = load i32, ptr %1, align 8
  br label %_ZN26GrowableArrayWithAllocatorIi13GrowableArrayIiEE6appendERKi.exit

_ZN26GrowableArrayWithAllocatorIi13GrowableArrayIiEE6appendERKi.exit: ; preds = %_ZN26GrowableArrayWithAllocatorIPN20RangeCheckEliminator5BoundE13GrowableArrayIS2_EE4pushERKS2_.exit, %57
  %67 = phi i32 [ %.pre.i, %57 ], [ %53, %_ZN26GrowableArrayWithAllocatorIPN20RangeCheckEliminator5BoundE13GrowableArrayIS2_EE4pushERKS2_.exit ]
  %68 = add nsw i32 %67, 1
  store i32 %68, ptr %1, align 8
  %69 = getelementptr inbounds i8, ptr %1, i64 8
  %70 = load ptr, ptr %69, align 8
  %71 = sext i32 %67 to i64
  %72 = getelementptr inbounds i32, ptr %70, i64 %71
  store i32 %52, ptr %72, align 4
  br label %73

73:                                               ; preds = %4, %_ZN26GrowableArrayWithAllocatorIi13GrowableArrayIiEE6appendERKi.exit
  ret void
}